; Function Attrs: mustprogress nounwind uwtable
define internal void @_ZN12_GLOBAL__N_111CVMCAdapter9emitBytesEN4llvm9StringRefE(ptr noundef nonnull readonly align 8 captures(none) dereferenceable(24) %0, ptr %1, i64 %2) unnamed_addr #0 align 2 {
  %4 = getelementptr inbounds nuw i8, ptr %0, i64 8
  %5 = load ptr, ptr %4, align 8
  %6 = load ptr, ptr %5, align 8
  %7 = getelementptr inbounds nuw i8, ptr %6, i64 496
  %8 = load ptr, ptr %7, align 8
  tail call void %8(ptr noundef nonnull align 8 dereferenceable(288) %5, ptr %1, i64 %2) #23
  ret void
}